; Function Attrs: mustprogress nounwind uwtable
define internal fastcc noundef i32 @"_ZZN5clang4ento10CoreEngine15ExecuteWorkListEPKNS_15LocationContextEjN4llvm18IntrusiveRefCntPtrIKNS0_12ProgramStateEEEENK3$_0clEj"(ptr %.0.val, i8 %.8.val, i32 noundef %0) unnamed_addr #0 align 2 {
  %2 = alloca %"class.clang::ento::WorkListUnit", align 8
  %3 = getelementptr inbounds nuw i8, ptr %.0.val, i64 144
  %4 = load ptr, ptr %3, align 8
  %5 = load ptr, ptr %4, align 8
  %6 = getelementptr inbounds nuw i8, ptr %5, i64 16
  %7 = load ptr, ptr %6, align 8
  %8 = tail call noundef zeroext i1 %7(ptr noundef nonnull align 8 dereferenceable(16) %4) #16
  br i1 %8, label %.lr.ph, label %._crit_edge

.lr.ph:                                           ; preds = %1
  %9 = trunc i8 %.8.val to i1
  %10 = getelementptr inbounds nuw i8, ptr %2, i64 8
  %11 = getelementptr inbounds nuw i8, ptr %.0.val, i64 152
  br i1 %9, label %.lr.ph.split.us, label %.lr.ph.split

.lr.ph.split.us:                                  ; preds = %.lr.ph, %_ZN5clang4ento10CoreEngine15setBlockCounterENS0_12BlockCounterE.exit.us
  %12 = load ptr, ptr %3, align 8
  %13 = load ptr, ptr %12, align 8
  %14 = getelementptr inbounds nuw i8, ptr %13, i64 32
  %15 = load ptr, ptr %14, align 8
  call void %15(ptr dead_on_unwind nonnull writable sret(%"class.clang::ento::WorkListUnit") align 8 %2, ptr noundef nonnull align 8 dereferenceable(16) %12) #16
  %.sroa.0.0.copyload.i.us = load ptr, ptr %10, align 8
  %16 = load ptr, ptr %3, align 8
  %17 = getelementptr inbounds nuw i8, ptr %16, i64 8
  store ptr %.sroa.0.0.copyload.i.us, ptr %17, align 8
  %18 = load ptr, ptr %11, align 8
  %.not.i.us = icmp eq ptr %18, null
  br i1 %.not.i.us, label %_ZN5clang4ento10CoreEngine15setBlockCounterENS0_12BlockCounterE.exit.us, label %19

19:                                               ; preds = %.lr.ph.split.us
  %20 = getelementptr inbounds nuw i8, ptr %18, i64 8
  store ptr %.sroa.0.0.copyload.i.us, ptr %20, align 8
  br label %_ZN5clang4ento10CoreEngine15setBlockCounterENS0_12BlockCounterE.exit.us

_ZN5clang4ento10CoreEngine15setBlockCounterENS0_12BlockCounterE.exit.us: ; preds = %19, %.lr.ph.split.us
  %21 = load ptr, ptr %2, align 8
  %22 = getelementptr inbounds nuw i8, ptr %21, i64 8
  call void @_ZN5clang4ento10CoreEngine16dispatchWorkItemEPNS0_12ExplodedNodeENS_12ProgramPointERKNS0_12WorkListUnitE(ptr noundef nonnull align 8 dereferenceable(248) %.0.val, ptr noundef nonnull %21, ptr noundef nonnull byval(%"class.clang::ProgramPoint") align 8 %22, ptr noundef nonnull align 8 dereferenceable(28) %2)
  %23 = load ptr, ptr %3, align 8
  %24 = load ptr, ptr %23, align 8
  %25 = getelementptr inbounds nuw i8, ptr %24, i64 16
  %26 = load ptr, ptr %25, align 8
  %27 = call noundef zeroext i1 %26(ptr noundef nonnull align 8 dereferenceable(16) %23) #16
  br i1 %27, label %.lr.ph.split.us, label %._crit_edge, !llvm.loop !4

.lr.ph.split:                                     ; preds = %.lr.ph, %_ZN5clang4ento10CoreEngine15setBlockCounterENS0_12BlockCounterE.exit
  %.01 = phi i32 [ %30, %_ZN5clang4ento10CoreEngine15setBlockCounterENS0_12BlockCounterE.exit ], [ %0, %.lr.ph ]
  %28 = icmp eq i32 %.01, 0
  br i1 %28, label %._crit_edge, label %29

29:                                               ; preds = %.lr.ph.split
  %30 = add i32 %.01, -1
  %31 = load ptr, ptr %3, align 8
  %32 = load ptr, ptr %31, align 8
  %33 = getelementptr inbounds nuw i8, ptr %32, i64 32
  %34 = load ptr, ptr %33, align 8
  call void %34(ptr dead_on_unwind nonnull writable sret(%"class.clang::ento::WorkListUnit") align 8 %2, ptr noundef nonnull align 8 dereferenceable(16) %31) #16
  %.sroa.0.0.copyload.i = load ptr, ptr %10, align 8
  %35 = load ptr, ptr %3, align 8
  %36 = getelementptr inbounds nuw i8, ptr %35, i64 8
  store ptr %.sroa.0.0.copyload.i, ptr %36, align 8
  %37 = load ptr, ptr %11, align 8
  %.not.i = icmp eq ptr %37, null
  br i1 %.not.i, label %_ZN5clang4ento10CoreEngine15setBlockCounterENS0_12BlockCounterE.exit, label %38

38:                                               ; preds = %29
  %39 = getelementptr inbounds nuw i8, ptr %37, i64 8
  store ptr %.sroa.0.0.copyload.i, ptr %39, align 8
  br label %_ZN5clang4ento10CoreEngine15setBlockCounterENS0_12BlockCounterE.exit

_ZN5clang4ento10CoreEngine15setBlockCounterENS0_12BlockCounterE.exit: ; preds = %29, %38
  %40 = load ptr, ptr %2, align 8
  %41 = getelementptr inbounds nuw i8, ptr %40, i64 8
  call void @_ZN5clang4ento10CoreEngine16dispatchWorkItemEPNS0_12ExplodedNodeENS_12ProgramPointERKNS0_12WorkListUnitE(ptr noundef nonnull align 8 dereferenceable(248) %.0.val, ptr noundef nonnull %40, ptr noundef nonnull byval(%"class.clang::ProgramPoint") align 8 %41, ptr noundef nonnull align 8 dereferenceable(28) %2)
  %42 = load ptr, ptr %3, align 8
  %43 = load ptr, ptr %42, align 8
  %44 = getelementptr inbounds nuw i8, ptr %43, i64 16
  %45 = load ptr, ptr %44, align 8
  %46 = call noundef zeroext i1 %45(ptr noundef nonnull align 8 dereferenceable(16) %42) #16
  br i1 %46, label %.lr.ph.split, label %._crit_edge, !llvm.loop !4

._crit_edge:                                      ; preds = %_ZN5clang4ento10CoreEngine15setBlockCounterENS0_12BlockCounterE.exit, %.lr.ph.split, %_ZN5clang4ento10CoreEngine15setBlockCounterENS0_12BlockCounterE.exit.us, %1
  %.0.lcssa = phi i32 [ %0, %1 ], [ %0, %_ZN5clang4ento10CoreEngine15setBlockCounterENS0_12BlockCounterE.exit.us ], [ 0, %.lr.ph.split ], [ %30, %_ZN5clang4ento10CoreEngine15setBlockCounterENS0_12BlockCounterE.exit ]
  %47 = sub i32 %0, %.0.lcssa
  ret i32 %47
}